target datalayout = "e-m:e-p270:32:32-p271:32:32-p272:64:64-i64:64-i128:128-f80:128-n8:16:32:64-S128"
target triple = "x86_64-pc-linux-gnu"

%struct.RBasic = type { i64, i64 }
%struct.re_pattern_buffer = type { ptr, i32, i32, i32, i32, i32, i32, i32, i32, i32, i32, i32, i32, i32, ptr, ptr, ptr, ptr, i32, i32, i32, i32, i64, i64, i32, ptr, ptr, [256 x i8], ptr, ptr, i64, i64, i64, ptr }
%struct.RRegexp = type { %struct.RBasic, ptr, i64, i64 }
%struct.reg_init_args = type { i64, i64, ptr, i32 }

@rb_eArgError = external global i64, align 8
@.str.117 = private unnamed_addr constant [22 x i8] c"invalid timeout: %li\0B\00", align 1

; Function Attrs: inlinehint nounwind sspstrong uwtable
define internal ptr @double2hrtime(ptr noundef %0, double noundef %1) #3 {
  %3 = alloca ptr, align 8
  %4 = alloca ptr, align 8
  %5 = alloca double, align 8
  %6 = alloca double, align 8
  %7 = alloca i32, align 4
  store ptr %0, ptr %4, align 8, !tbaa !62
  store double %1, ptr %5, align 8, !tbaa !103
  call void @llvm.lifetime.start.p0(i64 8, ptr %6) #28
  store double 0x43E0000000000000, ptr %6, align 8, !tbaa !103
  %8 = load double, ptr %5, align 8, !tbaa !103
  %9 = fcmp ole double 0x43E0000000000000, %8
  br i1 %9, label %10, label %12

10:                                               ; preds = %2
  %11 = load ptr, ptr %4, align 8, !tbaa !62
  store i64 -1, ptr %11, align 8, !tbaa !11
  store ptr null, ptr %3, align 8
  store i32 1, ptr %7, align 4
  br label %25

12:                                               ; preds = %2
  %13 = load double, ptr %5, align 8, !tbaa !103
  %14 = fcmp ole double %13, 0.000000e+00
  br i1 %14, label %15, label %17

15:                                               ; preds = %12
  %16 = load ptr, ptr %4, align 8, !tbaa !62
  store i64 0, ptr %16, align 8, !tbaa !11
  br label %22

17:                                               ; preds = %12
  %18 = load double, ptr %5, align 8, !tbaa !103
  %19 = fmul double %18, 1.000000e+09
  %20 = fptoui double %19 to i64
  %21 = load ptr, ptr %4, align 8, !tbaa !62
  store i64 %20, ptr %21, align 8, !tbaa !11
  br label %22

22:                                               ; preds = %17, %15
  br label %23

23:                                               ; preds = %22
  %24 = load ptr, ptr %4, align 8, !tbaa !62
  store ptr %24, ptr %3, align 8
  store i32 1, ptr %7, align 4
  br label %25

25:                                               ; preds = %23, %10
  call void @llvm.lifetime.end.p0(i64 8, ptr %6) #28
  %26 = load ptr, ptr %3, align 8
  ret ptr %26
}

; Function Attrs: nounwind sspstrong uwtable
define internal void @set_timeout(ptr noundef %0, i64 noundef %1) #0 {
  %3 = alloca ptr, align 8
  %4 = alloca i64, align 8
  %5 = alloca double, align 8
  store ptr %0, ptr %3, align 8, !tbaa !62
  store i64 %1, ptr %4, align 8, !tbaa !11
  call void @llvm.lifetime.start.p0(i64 8, ptr %5) #28
  %6 = load i64, ptr %4, align 8, !tbaa !11
  %7 = call zeroext i1 @RB_NIL_P(i64 noundef %6) #31
  br i1 %7, label %8, label %9

8:                                                ; preds = %2
  br label %12

9:                                                ; preds = %2
  %10 = load i64, ptr %4, align 8, !tbaa !11
  %11 = call double @rb_num2dbl(i64 noundef %10)
  br label %12

12:                                               ; preds = %9, %8
  %13 = phi double [ 0.000000e+00, %8 ], [ %11, %9 ]
  store double %13, ptr %5, align 8, !tbaa !103
  %14 = load i64, ptr %4, align 8, !tbaa !11
  %15 = call zeroext i1 @RB_NIL_P(i64 noundef %14) #31
  br i1 %15, label %22, label %16

16:                                               ; preds = %12
  %17 = load double, ptr %5, align 8, !tbaa !103
  %18 = fcmp ole double %17, 0.000000e+00
  br i1 %18, label %19, label %22

19:                                               ; preds = %16
  %20 = load i64, ptr @rb_eArgError, align 8, !tbaa !11
  %21 = load i64, ptr %4, align 8, !tbaa !11
  call void (i64, ptr, ...) @rb_raise(i64 noundef %20, ptr noundef @.str.117, i64 noundef %21) #30
  unreachable

22:                                               ; preds = %16, %12
  %23 = load ptr, ptr %3, align 8, !tbaa !62
  %24 = load double, ptr %5, align 8, !tbaa !103
  %25 = call ptr @double2hrtime(ptr noundef %23, double noundef %24)
  call void @llvm.lifetime.end.p0(i64 8, ptr %5) #28
  ret void
}

; Function Attrs: inlinehint nounwind sspstrong willreturn memory(none) uwtable
define internal zeroext i1 @RB_NIL_P(i64 noundef %0) #7 {
  %2 = alloca i64, align 8
  store i64 %0, ptr %2, align 8, !tbaa !11
  %3 = load i64, ptr %2, align 8, !tbaa !11
  %4 = icmp eq i64 %3, 4
  ret i1 %4
}

; Function Attrs: nounwind sspstrong uwtable
define internal i64 @rb_reg_initialize_m(i32 noundef %0, ptr noundef %1, i64 noundef %2) #0 {
  %4 = alloca i32, align 4
  %5 = alloca ptr, align 8
  %6 = alloca i64, align 8
  %7 = alloca %struct.reg_init_args, align 8
  %8 = alloca i64, align 8
  store i32 %0, ptr %4, align 4, !tbaa !16
  store ptr %1, ptr %5, align 8, !tbaa !62
  store i64 %2, ptr %6, align 8, !tbaa !11
  call void @llvm.lifetime.start.p0(i64 32, ptr %7) #28
  call void @llvm.lifetime.start.p0(i64 8, ptr %8) #28
  %9 = load i32, ptr %4, align 4, !tbaa !16
  %10 = load ptr, ptr %5, align 8, !tbaa !62
  %11 = call i64 @reg_extract_args(i32 noundef %9, ptr noundef %10, ptr noundef %7)
  store i64 %11, ptr %8, align 8, !tbaa !11
  %12 = load i64, ptr %8, align 8, !tbaa !11
  %13 = call zeroext i1 @RB_NIL_P(i64 noundef %12) #31
  br i1 %13, label %14, label %23

14:                                               ; preds = %3
  %15 = load i64, ptr %6, align 8, !tbaa !11
  %16 = getelementptr inbounds nuw %struct.reg_init_args, ptr %7, i32 0, i32 0
  %17 = load i64, ptr %16, align 8, !tbaa !98
  %18 = getelementptr inbounds nuw %struct.reg_init_args, ptr %7, i32 0, i32 2
  %19 = load ptr, ptr %18, align 8, !tbaa !100
  %20 = getelementptr inbounds nuw %struct.reg_init_args, ptr %7, i32 0, i32 3
  %21 = load i32, ptr %20, align 8, !tbaa !101
  %22 = call i64 @reg_init_args(i64 noundef %15, i64 noundef %17, ptr noundef %19, i32 noundef %21)
  br label %27

23:                                               ; preds = %3
  %24 = load i64, ptr %6, align 8, !tbaa !11
  %25 = load i64, ptr %8, align 8, !tbaa !11
  %26 = call i64 @reg_copy(i64 noundef %24, i64 noundef %25)
  br label %27

27:                                               ; preds = %23, %14
  %28 = load i64, ptr %6, align 8, !tbaa !11
  %29 = inttoptr i64 %28 to ptr
  %30 = getelementptr inbounds nuw %struct.RRegexp, ptr %29, i32 0, i32 1
  %31 = load ptr, ptr %30, align 8, !tbaa !50
  %32 = getelementptr inbounds nuw %struct.re_pattern_buffer, ptr %31, i32 0, i32 32
  %33 = getelementptr inbounds nuw %struct.reg_init_args, ptr %7, i32 0, i32 1
  %34 = load i64, ptr %33, align 8, !tbaa !102
  call void @set_timeout(ptr noundef %32, i64 noundef %34)
  %35 = load i64, ptr %6, align 8, !tbaa !11
  call void @llvm.lifetime.end.p0(i64 8, ptr %8) #28
  call void @llvm.lifetime.end.p0(i64 32, ptr %7) #28
  ret i64 %35
}