; Function Attrs: nounwind sspstrong uwtable
define internal noundef i64 @rb_reg_initialize_m(i32 noundef %0, ptr noundef readonly captures(none) %1, i64 noundef returned %2) #2 {
  %4 = alloca %struct.reg_init_args, align 8
  call void @llvm.lifetime.start.p0(i64 32, ptr nonnull %4) #29
  %5 = call fastcc i64 @reg_extract_args(i32 noundef %0, ptr noundef %1, ptr noundef %4)
  %6 = icmp eq i64 %5, 4
  br i1 %6, label %7, label %14

7:                                                ; preds = %3
  %8 = load i64, ptr %4, align 8, !tbaa !193
  %9 = getelementptr inbounds nuw i8, ptr %4, i64 16
  %10 = load ptr, ptr %9, align 8, !tbaa !195
  %11 = getelementptr inbounds nuw i8, ptr %4, i64 24
  %12 = load i32, ptr %11, align 8, !tbaa !196
  %13 = call fastcc i64 @reg_init_args(i64 noundef %2, i64 noundef %8, ptr noundef %10, i32 noundef %12)
  br label %16

14:                                               ; preds = %3
  %15 = call fastcc i64 @reg_copy(i64 noundef %2, i64 noundef %5)
  br label %16

16:                                               ; preds = %14, %7
  %17 = inttoptr i64 %2 to ptr
  %18 = getelementptr inbounds nuw i8, ptr %17, i64 16
  %19 = load ptr, ptr %18, align 8, !tbaa !37
  %20 = getelementptr inbounds nuw i8, ptr %4, i64 8
  %21 = load i64, ptr %20, align 8, !tbaa !197
  %22 = icmp eq i64 %21, 4
  br i1 %22, label %set_timeout.exit, label %23

23:                                               ; preds = %16
  %24 = call double @rb_num2dbl(i64 noundef %21) #29
  %.fr.i = freeze double %24
  %25 = fcmp ugt double %.fr.i, 0.000000e+00
  br i1 %25, label %28, label %26

26:                                               ; preds = %23
  %27 = load i64, ptr @rb_eArgError, align 8, !tbaa !18
  call void (i64, ptr, ...) @rb_raise(i64 noundef %27, ptr noundef nonnull @.str.117, i64 noundef %21) #30
  unreachable

28:                                               ; preds = %23
  %29 = fcmp ult double %.fr.i, 0x43E0000000000000
  br i1 %29, label %.thread12.i, label %set_timeout.exit

.thread12.i:                                      ; preds = %28
  %30 = fmul double %.fr.i, 1.000000e+09
  %31 = fptoui double %30 to i64
  br label %set_timeout.exit

set_timeout.exit:                                 ; preds = %16, %28, %.thread12.i
  %32 = phi i64 [ -1, %28 ], [ 0, %16 ], [ %31, %.thread12.i ]
  %33 = getelementptr inbounds nuw i8, ptr %19, i64 440
  store i64 %32, ptr %33, align 8, !tbaa !18
  call void @llvm.lifetime.end.p0(i64 32, ptr nonnull %4) #29
  ret i64 %2
}